target datalayout = "e-m:e-p270:32:32-p271:32:32-p272:64:64-i64:64-i128:128-f80:128-n8:16:32:64-S128"
target triple = "x86_64-pc-linux-gnu"

%"class.std::__cxx11::basic_string" = type { %"struct.std::__cxx11::basic_string<char>::_Alloc_hider", i64, %union.anon }
%"struct.std::__cxx11::basic_string<char>::_Alloc_hider" = type { ptr }
%union.anon = type { i64, [8 x i8] }
%class.cmCursesLongMessageForm = type { %class.cmCursesForm, %"class.std::__cxx11::basic_string", %"class.std::__cxx11::basic_string", i32, [2 x ptr] }
%class.cmCursesForm = type { ptr, ptr }

; Function Attrs: mustprogress nounwind uwtable
define dso_local void @_ZN23cmCursesLongMessageFormD2Ev(ptr noundef nonnull align 8 dereferenceable(104) %0) unnamed_addr #3 align 2 personality ptr @__gxx_personality_v0 {
  %2 = alloca ptr, align 8
  store ptr %0, ptr %2, align 8
  %3 = load ptr, ptr %2, align 8
  store ptr getelementptr inbounds ({ [8 x ptr] }, ptr @_ZTV23cmCursesLongMessageForm, i32 0, i32 0, i32 2), ptr %3, align 8
  %4 = getelementptr inbounds %class.cmCursesLongMessageForm, ptr %3, i32 0, i32 4
  %5 = getelementptr inbounds [2 x ptr], ptr %4, i64 0, i64 0
  %6 = load ptr, ptr %5, align 8
  %7 = icmp ne ptr %6, null
  br i1 %7, label %8, label %14

8:                                                ; preds = %1
  %9 = getelementptr inbounds %class.cmCursesLongMessageForm, ptr %3, i32 0, i32 4
  %10 = getelementptr inbounds [2 x ptr], ptr %9, i64 0, i64 0
  %11 = load ptr, ptr %10, align 8
  %12 = invoke i32 @free_field(ptr noundef %11)
          to label %13 unwind label %17

13:                                               ; preds = %8
  br label %14

14:                                               ; preds = %13, %1
  %15 = getelementptr inbounds %class.cmCursesLongMessageForm, ptr %3, i32 0, i32 2
  call void @_ZNSt7__cxx1112basic_stringIcSt11char_traitsIcESaIcEED1Ev(ptr noundef nonnull align 8 dereferenceable(32) %15) #8
  %16 = getelementptr inbounds %class.cmCursesLongMessageForm, ptr %3, i32 0, i32 1
  call void @_ZNSt7__cxx1112basic_stringIcSt11char_traitsIcESaIcEED1Ev(ptr noundef nonnull align 8 dereferenceable(32) %16) #8
  call void @_ZN12cmCursesFormD2Ev(ptr noundef nonnull align 8 dereferenceable(16) %3) #8
  ret void

17:                                               ; preds = %8
  %18 = landingpad { ptr, i32 }
          catch ptr null
  %19 = extractvalue { ptr, i32 } %18, 0
  call void @__clang_call_terminate(ptr %19) #9
  unreachable
}